target datalayout = "e-m:e-p270:32:32-p271:32:32-p272:64:64-i64:64-i128:128-f80:128-n8:16:32:64-S128"
target triple = "x86_64-unknown-linux-gnu"

%"class.rocksdb::MutexLock" = type { ptr }
%"class.rocksdb::TailPrefetchStats" = type { [32 x i64], %"class.rocksdb::port::Mutex", i64, i64 }
%"class.rocksdb::port::Mutex" = type { %union.pthread_mutex_t }
%union.pthread_mutex_t = type { %struct.__pthread_mutex_s }
%struct.__pthread_mutex_s = type { i32, i32, i32, i32, i32, i16, i16, %struct.__pthread_internal_list }
%struct.__pthread_internal_list = type { ptr, ptr }

; Function Attrs: mustprogress nounwind uwtable
define linkonce_odr void @_ZN7rocksdb9MutexLockD2Ev(ptr noundef nonnull align 8 dereferenceable(8) %this) unnamed_addr #1 comdat align 2 personality ptr @__gxx_personality_v0 {
entry:
  %this.addr = alloca ptr, align 8
  store ptr %this, ptr %this.addr, align 8
  %this1 = load ptr, ptr %this.addr, align 8
  %mu_ = getelementptr inbounds %"class.rocksdb::MutexLock", ptr %this1, i32 0, i32 0
  %0 = load ptr, ptr %mu_, align 8
  invoke void @_ZN7rocksdb4port5Mutex6UnlockEv(ptr noundef nonnull align 8 dereferenceable(40) %0)
          to label %invoke.cont unwind label %terminate.lpad

invoke.cont:                                      ; preds = %entry
  ret void

terminate.lpad:                                   ; preds = %entry
  %1 = landingpad { ptr, i32 }
          catch ptr null
  %2 = extractvalue { ptr, i32 } %1, 0
  call void @__clang_call_terminate(ptr %2) #17
  unreachable
}

; Function Attrs: mustprogress uwtable
define linkonce_odr void @_ZN7rocksdb9MutexLockC2EPNS_4port5MutexE(ptr noundef nonnull align 8 dereferenceable(8) %this, ptr noundef %mu) unnamed_addr #0 comdat align 2 {
entry:
  %this.addr = alloca ptr, align 8
  %mu.addr = alloca ptr, align 8
  store ptr %this, ptr %this.addr, align 8
  store ptr %mu, ptr %mu.addr, align 8
  %this1 = load ptr, ptr %this.addr, align 8
  %mu_ = getelementptr inbounds %"class.rocksdb::MutexLock", ptr %this1, i32 0, i32 0
  %0 = load ptr, ptr %mu.addr, align 8
  store ptr %0, ptr %mu_, align 8
  %mu_2 = getelementptr inbounds %"class.rocksdb::MutexLock", ptr %this1, i32 0, i32 0
  %1 = load ptr, ptr %mu_2, align 8
  call void @_ZN7rocksdb4port5Mutex4LockEv(ptr noundef nonnull align 8 dereferenceable(40) %1)
  ret void
}

; Function Attrs: mustprogress uwtable
define void @_ZN7rocksdb17TailPrefetchStats19RecordEffectiveSizeEm(ptr noundef nonnull align 8 dereferenceable(312) %this, i64 noundef %len) #0 align 2 {
entry:
  %this.addr = alloca ptr, align 8
  %len.addr = alloca i64, align 8
  %l = alloca %"class.rocksdb::MutexLock", align 8
  store ptr %this, ptr %this.addr, align 8
  store i64 %len, ptr %len.addr, align 8
  %this1 = load ptr, ptr %this.addr, align 8
  %mutex_ = getelementptr inbounds %"class.rocksdb::TailPrefetchStats", ptr %this1, i32 0, i32 1
  call void @_ZN7rocksdb9MutexLockC2EPNS_4port5MutexE(ptr noundef nonnull align 8 dereferenceable(8) %l, ptr noundef %mutex_)
  %num_records_ = getelementptr inbounds %"class.rocksdb::TailPrefetchStats", ptr %this1, i32 0, i32 3
  %0 = load i64, ptr %num_records_, align 8
  %cmp = icmp ult i64 %0, 32
  br i1 %cmp, label %if.then, label %if.end

if.then:                                          ; preds = %entry
  %num_records_2 = getelementptr inbounds %"class.rocksdb::TailPrefetchStats", ptr %this1, i32 0, i32 3
  %1 = load i64, ptr %num_records_2, align 8
  %inc = add i64 %1, 1
  store i64 %inc, ptr %num_records_2, align 8
  br label %if.end

if.end:                                           ; preds = %if.then, %entry
  %2 = load i64, ptr %len.addr, align 8
  %records_ = getelementptr inbounds %"class.rocksdb::TailPrefetchStats", ptr %this1, i32 0, i32 0
  %next_ = getelementptr inbounds %"class.rocksdb::TailPrefetchStats", ptr %this1, i32 0, i32 2
  %3 = load i64, ptr %next_, align 8
  %inc3 = add i64 %3, 1
  store i64 %inc3, ptr %next_, align 8
  %arrayidx = getelementptr inbounds [32 x i64], ptr %records_, i64 0, i64 %3
  store i64 %2, ptr %arrayidx, align 8
  %next_4 = getelementptr inbounds %"class.rocksdb::TailPrefetchStats", ptr %this1, i32 0, i32 2
  %4 = load i64, ptr %next_4, align 8
  %cmp5 = icmp eq i64 %4, 32
  br i1 %cmp5, label %if.then6, label %if.end8

if.then6:                                         ; preds = %if.end
  %next_7 = getelementptr inbounds %"class.rocksdb::TailPrefetchStats", ptr %this1, i32 0, i32 2
  store i64 0, ptr %next_7, align 8
  br label %if.end8

if.end8:                                          ; preds = %if.then6, %if.end
  call void @_ZN7rocksdb9MutexLockD2Ev(ptr noundef nonnull align 8 dereferenceable(8) %l) #3
  ret void
}