; Function Attrs: mustprogress uwtable
define void @_ZN7rocksdb17TailPrefetchStats19RecordEffectiveSizeEm(ptr noundef nonnull align 8 dereferenceable(312) %this, i64 noundef %len) local_unnamed_addr #2 align 2 personality ptr @__gxx_personality_v0 {
entry:
  %mutex_ = getelementptr inbounds i8, ptr %this, i64 256
  tail call void @_ZN7rocksdb4port5Mutex4LockEv(ptr noundef nonnull align 8 dereferenceable(40) %mutex_)
  %num_records_ = getelementptr inbounds i8, ptr %this, i64 304
  %0 = load i64, ptr %num_records_, align 8
  %cmp = icmp ult i64 %0, 32
  br i1 %cmp, label %if.then, label %if.end

if.then:                                          ; preds = %entry
  %inc = add nuw nsw i64 %0, 1
  store i64 %inc, ptr %num_records_, align 8
  br label %if.end

if.end:                                           ; preds = %if.then, %entry
  %next_ = getelementptr inbounds i8, ptr %this, i64 296
  %1 = load i64, ptr %next_, align 8
  %inc3 = add i64 %1, 1
  store i64 %inc3, ptr %next_, align 8
  %arrayidx = getelementptr inbounds [32 x i64], ptr %this, i64 0, i64 %1
  store i64 %len, ptr %arrayidx, align 8
  %2 = load i64, ptr %next_, align 8
  %cmp5 = icmp eq i64 %2, 32
  br i1 %cmp5, label %if.then6, label %if.end8

if.then6:                                         ; preds = %if.end
  store i64 0, ptr %next_, align 8
  br label %if.end8

if.end8:                                          ; preds = %if.then6, %if.end
  invoke void @_ZN7rocksdb4port5Mutex6UnlockEv(ptr noundef nonnull align 8 dereferenceable(40) %mutex_)
          to label %_ZN7rocksdb9MutexLockD2Ev.exit unwind label %terminate.lpad.i

terminate.lpad.i:                                 ; preds = %if.end8
  %3 = landingpad { ptr, i32 }
          catch ptr null
  %4 = extractvalue { ptr, i32 } %3, 0
  tail call void @__clang_call_terminate(ptr %4) #22
  unreachable

_ZN7rocksdb9MutexLockD2Ev.exit:                   ; preds = %if.end8
  ret void
}